; Function Attrs: mustprogress nounwind uwtable
define dso_local void @_ZN4llvm16LTOCodeGenerator19setAsmUndefinedRefsEPNS_9LTOModuleE(ptr noundef nonnull align 8 dereferenceable(1680) %0, ptr noundef readonly captures(none) %1) local_unnamed_addr #1 align 2 {
  %3 = getelementptr inbounds nuw i8, ptr %1, i64 312
  %4 = load ptr, ptr %3, align 8
  %5 = getelementptr inbounds nuw i8, ptr %1, i64 320
  %6 = load ptr, ptr %5, align 8
  %.not9 = icmp eq ptr %4, %6
  br i1 %.not9, label %._crit_edge, label %.lr.ph

.lr.ph:                                           ; preds = %2
  %7 = getelementptr inbounds nuw i8, ptr %0, i64 64
  br label %8

8:                                                ; preds = %.lr.ph, %8
  %.sroa.06.010 = phi ptr [ %4, %.lr.ph ], [ %11, %8 ]
  %.sroa.01.0.copyload = load ptr, ptr %.sroa.06.010, align 8
  %.sroa.2.0..sroa_idx = getelementptr inbounds nuw i8, ptr %.sroa.06.010, i64 8
  %.sroa.2.0.copyload = load i64, ptr %.sroa.2.0..sroa_idx, align 8
  %9 = tail call noundef i32 @_ZN4llvm13StringMapImpl4hashENS_9StringRefE(ptr %.sroa.01.0.copyload, i64 %.sroa.2.0.copyload) #23
  %10 = tail call { ptr, i8 } @_ZN4llvm9StringMapISt9nullopt_tNS_15MallocAllocatorEE21try_emplace_with_hashIJEEESt4pairINS_17StringMapIteratorIS1_EEbENS_9StringRefEjDpOT_(ptr noundef nonnull align 8 dereferenceable(24) %7, ptr %.sroa.01.0.copyload, i64 %.sroa.2.0.copyload, i32 noundef %9)
  %11 = getelementptr inbounds nuw i8, ptr %.sroa.06.010, i64 16
  %.not = icmp eq ptr %11, %6
  br i1 %.not, label %._crit_edge, label %8

._crit_edge:                                      ; preds = %8, %2
  ret void
}